target datalayout = "e-m:e-p270:32:32-p271:32:32-p272:64:64-i64:64-i128:128-f80:128-n8:16:32:64-S128"
target triple = "x86_64-unknown-linux-gnu"

%struct.QemuMutex = type { %union.pthread_mutex_t, i8 }
%union.pthread_mutex_t = type { %struct.__pthread_mutex_s }
%struct.__pthread_mutex_s = type { i32, i32, i32, i32, i32, i16, i16, %struct.__pthread_internal_list }
%struct.__pthread_internal_list = type { ptr, ptr }
%struct.QTailQLink = type { ptr, ptr }
%struct.QemuCond = type { %union.pthread_cond_t, i8 }
%union.pthread_cond_t = type { %struct.__pthread_cond_s }
%struct.__pthread_cond_s = type { %union.__atomic_wide_counter, %union.__atomic_wide_counter, [2 x i32], [2 x i32], i32, i32, [2 x i32] }
%union.__atomic_wide_counter = type { i64 }
%struct.CompareState = type { %struct.Object, ptr, ptr, ptr, ptr, %struct.CharBackend, %struct.CharBackend, %struct.CharBackend, %struct.CharBackend, %struct.SocketReadState, %struct.SocketReadState, %struct.SocketReadState, %struct.SendCo, %struct.SendCo, i8, i64, i32, %struct._GQueue, ptr, ptr, ptr, ptr, ptr, i32, %union.anon.0 }
%struct.Object = type { ptr, ptr, ptr, i32, ptr }
%struct.CharBackend = type { ptr, ptr, ptr, ptr, ptr, ptr, i32, i32 }
%struct.SocketReadState = type { i32, i8, i32, i32, i32, [69632 x i8], ptr }
%struct.SendCo = type { ptr, ptr, ptr, %struct._GQueue, i8, i8, i32 }
%struct._GQueue = type { ptr, ptr, i32 }
%union.anon.0 = type { %struct.QTailQLink }

@.str = private unnamed_addr constant [27 x i8] c"../qemu/net/colo-compare.c\00", align 1
@qemu_mutex_lock_func = external global ptr, align 8
@event_mtx = internal global %struct.QemuMutex zeroinitializer, align 8
@event_unhandled_count = internal global i32 0, align 4
@event_complete_cond = internal global %struct.QemuCond zeroinitializer, align 8
@.str.60 = private unnamed_addr constant [26 x i8] c"colo_compare_handle_event\00", align 1
@.str.66 = private unnamed_addr constant [26 x i8] c"event_unhandled_count > 0\00", align 1
@__PRETTY_FUNCTION__.colo_compare_handle_event = private unnamed_addr constant [39 x i8] c"void colo_compare_handle_event(void *)\00", align 1

; Function Attrs: nounwind sspstrong uwtable
define internal void @colo_compare_handle_event(ptr noundef %opaque) #0 {
entry:
  %opaque.addr = alloca ptr, align 8
  %s = alloca ptr, align 8
  %_f = alloca ptr, align 8
  %tmp = alloca ptr, align 8
  %atomic-temp = alloca ptr, align 8
  store ptr %opaque, ptr %opaque.addr, align 8
  %0 = load ptr, ptr %opaque.addr, align 8
  store ptr %0, ptr %s, align 8
  %1 = load ptr, ptr %s, align 8
  %event = getelementptr inbounds %struct.CompareState, ptr %1, i32 0, i32 23
  %2 = load i32, ptr %event, align 8
  switch i32 %2, label %sw.default [
    i32 1, label %sw.bb
    i32 2, label %sw.bb1
  ]

sw.bb:                                            ; preds = %entry
  %3 = load ptr, ptr %s, align 8
  %conn_list = getelementptr inbounds %struct.CompareState, ptr %3, i32 0, i32 17
  %4 = load ptr, ptr %s, align 8
  call void @g_queue_foreach(ptr noundef %conn_list, ptr noundef @colo_flush_packets, ptr noundef %4)
  br label %sw.epilog

sw.bb1:                                           ; preds = %entry
  br label %sw.epilog

sw.default:                                       ; preds = %entry
  br label %sw.epilog

sw.epilog:                                        ; preds = %sw.default, %sw.bb1, %sw.bb
  br label %while.cond

while.cond:                                       ; preds = %do.end, %sw.epilog
  br i1 false, label %while.body, label %while.end

while.body:                                       ; preds = %while.cond
  br label %do.body

do.body:                                          ; preds = %while.body
  call void @g_assertion_message_expr(ptr noundef null, ptr noundef @.str, i32 noundef 964, ptr noundef @.str.60, ptr noundef null) #10
  unreachable

do.end:                                           ; No predecessors!
  br label %while.cond

while.end:                                        ; preds = %while.cond
  %5 = load atomic i64, ptr @qemu_mutex_lock_func monotonic, align 8
  store i64 %5, ptr %atomic-temp, align 8
  %6 = load ptr, ptr %atomic-temp, align 8
  store ptr %6, ptr %tmp, align 8
  %7 = load ptr, ptr %tmp, align 8
  store ptr %7, ptr %_f, align 8
  %8 = load ptr, ptr %_f, align 8
  call void %8(ptr noundef @event_mtx, ptr noundef @.str, i32 noundef 964)
  %9 = load i32, ptr @event_unhandled_count, align 4
  %cmp = icmp sgt i32 %9, 0
  br i1 %cmp, label %if.then, label %if.else

if.then:                                          ; preds = %while.end
  br label %if.end

if.else:                                          ; preds = %while.end
  call void @__assert_fail(ptr noundef @.str.66, ptr noundef @.str, i32 noundef 965, ptr noundef @__PRETTY_FUNCTION__.colo_compare_handle_event) #11
  unreachable

if.end:                                           ; preds = %if.then
  %10 = load i32, ptr @event_unhandled_count, align 4
  %dec = add i32 %10, -1
  store i32 %dec, ptr @event_unhandled_count, align 4
  call void @qemu_cond_broadcast(ptr noundef @event_complete_cond)
  call void @qemu_mutex_unlock_impl(ptr noundef @event_mtx, ptr noundef @.str, i32 noundef 968)
  ret void
}