; Function Attrs: nounwind sspstrong uwtable
define internal void @colo_compare_handle_event(ptr noundef %opaque) #0 {
entry:
  %event = getelementptr inbounds nuw i8, ptr %opaque, i64 209488
  %0 = load i32, ptr %event, align 8
  %cond = icmp eq i32 %0, 1
  br i1 %cond, label %sw.bb, label %while.end

sw.bb:                                            ; preds = %entry
  %conn_list = getelementptr inbounds nuw i8, ptr %opaque, i64 209424
  tail call void @g_queue_foreach(ptr noundef nonnull %conn_list, ptr noundef nonnull @colo_flush_packets, ptr noundef nonnull %opaque) #16
  br label %while.end

while.end:                                        ; preds = %entry, %sw.bb
  %1 = load atomic i64, ptr @qemu_mutex_lock_func monotonic, align 8
  %2 = inttoptr i64 %1 to ptr
  tail call void %2(ptr noundef nonnull @event_mtx, ptr noundef nonnull @.str, i32 noundef 964) #16
  %3 = load i32, ptr @event_unhandled_count, align 4
  %cmp = icmp sgt i32 %3, 0
  br i1 %cmp, label %if.end, label %if.else

if.else:                                          ; preds = %while.end
  tail call void @__assert_fail(ptr noundef nonnull @.str.66, ptr noundef nonnull @.str, i32 noundef 965, ptr noundef nonnull @__PRETTY_FUNCTION__.colo_compare_handle_event) #17
  unreachable

if.end:                                           ; preds = %while.end
  %dec = add nsw i32 %3, -1
  store i32 %dec, ptr @event_unhandled_count, align 4
  tail call void @qemu_cond_broadcast(ptr noundef nonnull @event_complete_cond) #16
  tail call void @qemu_mutex_unlock_impl(ptr noundef nonnull @event_mtx, ptr noundef nonnull @.str, i32 noundef 968) #16
  ret void
}